target datalayout = "e-m:e-p270:32:32-p271:32:32-p272:64:64-i64:64-i128:128-f80:128-n8:16:32:64-S128"
target triple = "x86_64-pc-linux-gnu"

%struct._stat_tap_table_ui = type { i32, ptr, ptr, ptr, ptr, ptr, ptr, ptr, ptr, i64, ptr, i64, ptr, ptr, i32 }
%struct._GArray = type { ptr, i32 }

; Function Attrs: null_pointer_is_valid sspstrong uwtable
define void @reset_stat_table(ptr noundef %0) #0 {
  %2 = alloca ptr, align 8
  %3 = alloca i32, align 4
  %4 = alloca ptr, align 8
  store ptr %0, ptr %2, align 8
  call void @llvm.lifetime.start.p0(i64 4, ptr %3) #13
  store i32 0, ptr %3, align 4
  call void @llvm.lifetime.start.p0(i64 8, ptr %4) #13
  store i32 0, ptr %3, align 4
  br label %5

5:                                                ; preds = %33, %1
  %6 = load i32, ptr %3, align 4
  %7 = load ptr, ptr %2, align 8
  %8 = getelementptr inbounds nuw %struct._stat_tap_table_ui, ptr %7, i32 0, i32 13
  %9 = load ptr, ptr %8, align 8
  %10 = getelementptr inbounds nuw %struct._GArray, ptr %9, i32 0, i32 1
  %11 = load i32, ptr %10, align 8
  %12 = icmp ult i32 %6, %11
  br i1 %12, label %13, label %36

13:                                               ; preds = %5
  %14 = load ptr, ptr %2, align 8
  %15 = getelementptr inbounds nuw %struct._stat_tap_table_ui, ptr %14, i32 0, i32 13
  %16 = load ptr, ptr %15, align 8
  %17 = getelementptr inbounds nuw %struct._GArray, ptr %16, i32 0, i32 0
  %18 = load ptr, ptr %17, align 8
  %19 = load i32, ptr %3, align 4
  %20 = zext i32 %19 to i64
  %21 = getelementptr ptr, ptr %18, i64 %20
  %22 = load ptr, ptr %21, align 8
  store ptr %22, ptr %4, align 8
  %23 = load ptr, ptr %2, align 8
  %24 = getelementptr inbounds nuw %struct._stat_tap_table_ui, ptr %23, i32 0, i32 6
  %25 = load ptr, ptr %24, align 8
  %26 = icmp ne ptr %25, null
  br i1 %26, label %27, label %32

27:                                               ; preds = %13
  %28 = load ptr, ptr %2, align 8
  %29 = getelementptr inbounds nuw %struct._stat_tap_table_ui, ptr %28, i32 0, i32 6
  %30 = load ptr, ptr %29, align 8
  %31 = load ptr, ptr %4, align 8
  call void %30(ptr noundef %31)
  br label %32

32:                                               ; preds = %27, %13
  br label %33

33:                                               ; preds = %32
  %34 = load i32, ptr %3, align 4
  %35 = add i32 %34, 1
  store i32 %35, ptr %3, align 4
  br label %5, !llvm.loop !11

36:                                               ; preds = %5
  call void @llvm.lifetime.end.p0(i64 8, ptr %4) #13
  call void @llvm.lifetime.end.p0(i64 4, ptr %3) #13
  ret void
}