; Function Attrs: null_pointer_is_valid sspstrong uwtable
define void @reset_stat_table(ptr noundef readonly captures(none) %0) local_unnamed_addr #0 {
  %2 = getelementptr inbounds nuw i8, ptr %0, i64 104
  %3 = load ptr, ptr %2, align 8
  %4 = getelementptr inbounds nuw i8, ptr %3, i64 8
  %5 = load i32, ptr %4, align 8
  %.not9 = icmp eq i32 %5, 0
  br i1 %.not9, label %._crit_edge, label %.lr.ph

.lr.ph:                                           ; preds = %1
  %6 = getelementptr inbounds nuw i8, ptr %0, i64 48
  %7 = load ptr, ptr %6, align 8
  %8 = icmp eq ptr %7, null
  br i1 %8, label %._crit_edge, label %.lr.ph.split

.lr.ph.splitthread-pre-split:                     ; preds = %15
  %.pr = load ptr, ptr %6, align 8
  br label %.lr.ph.split

.lr.ph.split:                                     ; preds = %.lr.ph, %.lr.ph.splitthread-pre-split
  %9 = phi ptr [ %.pr, %.lr.ph.splitthread-pre-split ], [ %7, %.lr.ph ]
  %10 = phi ptr [ %16, %.lr.ph.splitthread-pre-split ], [ %3, %.lr.ph ]
  %indvars.iv = phi i64 [ %indvars.iv.next, %.lr.ph.splitthread-pre-split ], [ 0, %.lr.ph ]
  %.not = icmp eq ptr %9, null
  br i1 %.not, label %15, label %11

11:                                               ; preds = %.lr.ph.split
  %12 = load ptr, ptr %10, align 8
  %13 = getelementptr ptr, ptr %12, i64 %indvars.iv
  %14 = load ptr, ptr %13, align 8
  tail call void %9(ptr noundef %14)
  %.pre = load ptr, ptr %2, align 8
  br label %15

15:                                               ; preds = %.lr.ph.split, %11
  %16 = phi ptr [ %10, %.lr.ph.split ], [ %.pre, %11 ]
  %indvars.iv.next = add nuw nsw i64 %indvars.iv, 1
  %17 = getelementptr inbounds nuw i8, ptr %16, i64 8
  %18 = load i32, ptr %17, align 8
  %19 = zext i32 %18 to i64
  %20 = icmp samesign ult i64 %indvars.iv.next, %19
  br i1 %20, label %.lr.ph.splitthread-pre-split, label %._crit_edge, !llvm.loop !11

._crit_edge:                                      ; preds = %15, %.lr.ph, %1
  ret void
}